ARM GAS  /tmp/ccbYant3.s 			page 1


   1              		.cpu cortex-m3
   2              		.eabi_attribute 20, 1
   3              		.eabi_attribute 21, 1
   4              		.eabi_attribute 23, 3
   5              		.eabi_attribute 24, 1
   6              		.eabi_attribute 25, 1
   7              		.eabi_attribute 26, 1
   8              		.eabi_attribute 30, 1
   9              		.eabi_attribute 34, 1
  10              		.eabi_attribute 18, 4
  11              		.file	"main.c"
  12              		.text
  13              	.Ltext0:
  14              		.cfi_sections	.debug_frame
  15              		.section	.text.MX_GPIO_Init,"ax",%progbits
  16              		.align	1
  17              		.arch armv7-m
  18              		.syntax unified
  19              		.thumb
  20              		.thumb_func
  21              		.fpu softvfp
  23              	MX_GPIO_Init:
  24              	.LFB73:
  25              		.file 1 "Core/Src/main.c"
   1:Core/Src/main.c **** /* USER CODE BEGIN Header */
   2:Core/Src/main.c **** /**
   3:Core/Src/main.c ****   ******************************************************************************
   4:Core/Src/main.c ****   * @file           : main.c
   5:Core/Src/main.c ****   * @brief          : Main program body
   6:Core/Src/main.c ****   ******************************************************************************
   7:Core/Src/main.c ****   * @attention
   8:Core/Src/main.c ****   *
   9:Core/Src/main.c ****   * Copyright (c) 2025 STMicroelectronics.
  10:Core/Src/main.c ****   * All rights reserved.
  11:Core/Src/main.c ****   *
  12:Core/Src/main.c ****   * This software is licensed under terms that can be found in the LICENSE file
  13:Core/Src/main.c ****   * in the root directory of this software component.
  14:Core/Src/main.c ****   * If no LICENSE file comes with this software, it is provided AS-IS.
  15:Core/Src/main.c ****   *
  16:Core/Src/main.c ****   ******************************************************************************
  17:Core/Src/main.c ****   */
  18:Core/Src/main.c **** /* USER CODE END Header */
  19:Core/Src/main.c **** /* Includes ------------------------------------------------------------------*/
  20:Core/Src/main.c **** #include "main.h"
  21:Core/Src/main.c **** 
  22:Core/Src/main.c **** /* Private includes ----------------------------------------------------------*/
  23:Core/Src/main.c **** /* USER CODE BEGIN Includes */
  24:Core/Src/main.c **** #include "string.h"
  25:Core/Src/main.c **** #include <stdio.h>
  26:Core/Src/main.c **** 
  27:Core/Src/main.c **** /* USER CODE END Includes */
  28:Core/Src/main.c **** 
  29:Core/Src/main.c **** /* Private typedef -----------------------------------------------------------*/
  30:Core/Src/main.c **** /* USER CODE BEGIN PTD */
  31:Core/Src/main.c **** 
  32:Core/Src/main.c **** /* USER CODE END PTD */
  33:Core/Src/main.c **** 
ARM GAS  /tmp/ccbYant3.s 			page 2


  34:Core/Src/main.c **** /* Private define ------------------------------------------------------------*/
  35:Core/Src/main.c **** /* USER CODE BEGIN PD */
  36:Core/Src/main.c **** 
  37:Core/Src/main.c **** /* USER CODE END PD */
  38:Core/Src/main.c **** 
  39:Core/Src/main.c **** /* Private macro -------------------------------------------------------------*/
  40:Core/Src/main.c **** /* USER CODE BEGIN PM */
  41:Core/Src/main.c **** 
  42:Core/Src/main.c **** /* USER CODE END PM */
  43:Core/Src/main.c **** 
  44:Core/Src/main.c **** /* Private variables ---------------------------------------------------------*/
  45:Core/Src/main.c **** ADC_HandleTypeDef hadc1;
  46:Core/Src/main.c **** DMA_HandleTypeDef hdma_adc1;
  47:Core/Src/main.c **** 
  48:Core/Src/main.c **** TIM_HandleTypeDef htim2;
  49:Core/Src/main.c **** 
  50:Core/Src/main.c **** UART_HandleTypeDef huart1;
  51:Core/Src/main.c **** 
  52:Core/Src/main.c **** /* USER CODE BEGIN PV */
  53:Core/Src/main.c **** 
  54:Core/Src/main.c **** /* USER CODE END PV */
  55:Core/Src/main.c **** 
  56:Core/Src/main.c **** /* Private function prototypes -----------------------------------------------*/
  57:Core/Src/main.c **** void SystemClock_Config(void);
  58:Core/Src/main.c **** static void MX_GPIO_Init(void);
  59:Core/Src/main.c **** static void MX_DMA_Init(void);
  60:Core/Src/main.c **** static void MX_ADC1_Init(void);
  61:Core/Src/main.c **** static void MX_USART1_UART_Init(void);
  62:Core/Src/main.c **** static void MX_TIM2_Init(void);
  63:Core/Src/main.c **** /* USER CODE BEGIN PFP */
  64:Core/Src/main.c **** 
  65:Core/Src/main.c **** /* USER CODE END PFP */
  66:Core/Src/main.c **** 
  67:Core/Src/main.c **** /* Private user code ---------------------------------------------------------*/
  68:Core/Src/main.c **** /* USER CODE BEGIN 0 */
  69:Core/Src/main.c **** uint16_t adc[1];
  70:Core/Src/main.c **** uint16_t adc_read;
  71:Core/Src/main.c **** 
  72:Core/Src/main.c **** char msg[25];
  73:Core/Src/main.c **** 
  74:Core/Src/main.c **** int ADCFinis = 0;
  75:Core/Src/main.c **** int count = 0;
  76:Core/Src/main.c **** void HAL_ADC_ConvCpltCallback(ADC_HandleTypeDef* hadc)
  77:Core/Src/main.c **** {
  78:Core/Src/main.c ****   ADCFinis = 1;
  79:Core/Src/main.c **** }
  80:Core/Src/main.c **** /* USER CODE END 0 */
  81:Core/Src/main.c **** 
  82:Core/Src/main.c **** /**
  83:Core/Src/main.c ****   * @brief  The application entry point.
  84:Core/Src/main.c ****   * @retval int
  85:Core/Src/main.c ****   */
  86:Core/Src/main.c **** int main(void)
  87:Core/Src/main.c **** {
  88:Core/Src/main.c **** 
  89:Core/Src/main.c ****   /* USER CODE BEGIN 1 */
  90:Core/Src/main.c **** 
ARM GAS  /tmp/ccbYant3.s 			page 3


  91:Core/Src/main.c ****   /* USER CODE END 1 */
  92:Core/Src/main.c **** 
  93:Core/Src/main.c ****   /* MCU Configuration--------------------------------------------------------*/
  94:Core/Src/main.c **** 
  95:Core/Src/main.c ****   /* Reset of all peripherals, Initializes the Flash interface and the Systick. */
  96:Core/Src/main.c ****   HAL_Init();
  97:Core/Src/main.c **** 
  98:Core/Src/main.c ****   /* USER CODE BEGIN Init */
  99:Core/Src/main.c **** 
 100:Core/Src/main.c ****   /* USER CODE END Init */
 101:Core/Src/main.c **** 
 102:Core/Src/main.c ****   /* Configure the system clock */
 103:Core/Src/main.c ****   SystemClock_Config();
 104:Core/Src/main.c **** 
 105:Core/Src/main.c ****   /* USER CODE BEGIN SysInit */
 106:Core/Src/main.c **** 
 107:Core/Src/main.c ****   /* USER CODE END SysInit */
 108:Core/Src/main.c **** 
 109:Core/Src/main.c ****   /* Initialize all configured peripherals */
 110:Core/Src/main.c ****   MX_GPIO_Init();
 111:Core/Src/main.c ****   MX_DMA_Init();
 112:Core/Src/main.c ****   MX_ADC1_Init();
 113:Core/Src/main.c ****   MX_USART1_UART_Init();
 114:Core/Src/main.c ****   MX_TIM2_Init();
 115:Core/Src/main.c ****   /* USER CODE BEGIN 2 */
 116:Core/Src/main.c **** 
 117:Core/Src/main.c ****   HAL_TIM_PWM_Start(&htim2, TIM_CHANNEL_2);
 118:Core/Src/main.c **** 
 119:Core/Src/main.c ****    HAL_ADC_Start_DMA(&hadc1, adc, 1);
 120:Core/Src/main.c **** 
 121:Core/Src/main.c ****   /* USER CODE END 2 */
 122:Core/Src/main.c **** 
 123:Core/Src/main.c ****   /* Infinite loop */
 124:Core/Src/main.c ****   /* USER CODE BEGIN WHILE */
 125:Core/Src/main.c ****   while (1)
 126:Core/Src/main.c ****   {
 127:Core/Src/main.c ****     /* USER CODE END WHILE */
 128:Core/Src/main.c ****     for(int i = 0 ; i<255; i++){
 129:Core/Src/main.c ****       __HAL_TIM_SET_COMPARE(&htim2, TIM_CHANNEL_2, i);
 130:Core/Src/main.c ****       HAL_Delay(5);
 131:Core/Src/main.c ****     }
 132:Core/Src/main.c ****     HAL_Delay(2000);
 133:Core/Src/main.c **** 
 134:Core/Src/main.c ****     for(int i = 255 ; i>0; i--){
 135:Core/Src/main.c ****       __HAL_TIM_SET_COMPARE(&htim2, TIM_CHANNEL_2, i);
 136:Core/Src/main.c ****       HAL_Delay(5);
 137:Core/Src/main.c ****     }
 138:Core/Src/main.c ****     HAL_Delay(2000);
 139:Core/Src/main.c **** 
 140:Core/Src/main.c ****     /* USER CODE BEGIN 3 */
 141:Core/Src/main.c ****   }
 142:Core/Src/main.c ****   /* USER CODE END 3 */
 143:Core/Src/main.c **** }
 144:Core/Src/main.c **** 
 145:Core/Src/main.c **** /**
 146:Core/Src/main.c ****   * @brief System Clock Configuration
 147:Core/Src/main.c ****   * @retval None
ARM GAS  /tmp/ccbYant3.s 			page 4


 148:Core/Src/main.c ****   */
 149:Core/Src/main.c **** void SystemClock_Config(void)
 150:Core/Src/main.c **** {
 151:Core/Src/main.c ****   RCC_OscInitTypeDef RCC_OscInitStruct = {0};
 152:Core/Src/main.c ****   RCC_ClkInitTypeDef RCC_ClkInitStruct = {0};
 153:Core/Src/main.c ****   RCC_PeriphCLKInitTypeDef PeriphClkInit = {0};
 154:Core/Src/main.c **** 
 155:Core/Src/main.c ****   /** Initializes the RCC Oscillators according to the specified parameters
 156:Core/Src/main.c ****   * in the RCC_OscInitTypeDef structure.
 157:Core/Src/main.c ****   */
 158:Core/Src/main.c ****   RCC_OscInitStruct.OscillatorType = RCC_OSCILLATORTYPE_HSE;
 159:Core/Src/main.c ****   RCC_OscInitStruct.HSEState = RCC_HSE_ON;
 160:Core/Src/main.c ****   RCC_OscInitStruct.HSEPredivValue = RCC_HSE_PREDIV_DIV1;
 161:Core/Src/main.c ****   RCC_OscInitStruct.HSIState = RCC_HSI_ON;
 162:Core/Src/main.c ****   RCC_OscInitStruct.PLL.PLLState = RCC_PLL_ON;
 163:Core/Src/main.c ****   RCC_OscInitStruct.PLL.PLLSource = RCC_PLLSOURCE_HSE;
 164:Core/Src/main.c ****   RCC_OscInitStruct.PLL.PLLMUL = RCC_PLL_MUL9;
 165:Core/Src/main.c ****   if (HAL_RCC_OscConfig(&RCC_OscInitStruct) != HAL_OK)
 166:Core/Src/main.c ****   {
 167:Core/Src/main.c ****     Error_Handler();
 168:Core/Src/main.c ****   }
 169:Core/Src/main.c **** 
 170:Core/Src/main.c ****   /** Initializes the CPU, AHB and APB buses clocks
 171:Core/Src/main.c ****   */
 172:Core/Src/main.c ****   RCC_ClkInitStruct.ClockType = RCC_CLOCKTYPE_HCLK|RCC_CLOCKTYPE_SYSCLK
 173:Core/Src/main.c ****                               |RCC_CLOCKTYPE_PCLK1|RCC_CLOCKTYPE_PCLK2;
 174:Core/Src/main.c ****   RCC_ClkInitStruct.SYSCLKSource = RCC_SYSCLKSOURCE_PLLCLK;
 175:Core/Src/main.c ****   RCC_ClkInitStruct.AHBCLKDivider = RCC_SYSCLK_DIV1;
 176:Core/Src/main.c ****   RCC_ClkInitStruct.APB1CLKDivider = RCC_HCLK_DIV2;
 177:Core/Src/main.c ****   RCC_ClkInitStruct.APB2CLKDivider = RCC_HCLK_DIV1;
 178:Core/Src/main.c **** 
 179:Core/Src/main.c ****   if (HAL_RCC_ClockConfig(&RCC_ClkInitStruct, FLASH_LATENCY_2) != HAL_OK)
 180:Core/Src/main.c ****   {
 181:Core/Src/main.c ****     Error_Handler();
 182:Core/Src/main.c ****   }
 183:Core/Src/main.c ****   PeriphClkInit.PeriphClockSelection = RCC_PERIPHCLK_ADC;
 184:Core/Src/main.c ****   PeriphClkInit.AdcClockSelection = RCC_ADCPCLK2_DIV6;
 185:Core/Src/main.c ****   if (HAL_RCCEx_PeriphCLKConfig(&PeriphClkInit) != HAL_OK)
 186:Core/Src/main.c ****   {
 187:Core/Src/main.c ****     Error_Handler();
 188:Core/Src/main.c ****   }
 189:Core/Src/main.c **** }
 190:Core/Src/main.c **** 
 191:Core/Src/main.c **** /**
 192:Core/Src/main.c ****   * @brief ADC1 Initialization Function
 193:Core/Src/main.c ****   * @param None
 194:Core/Src/main.c ****   * @retval None
 195:Core/Src/main.c ****   */
 196:Core/Src/main.c **** static void MX_ADC1_Init(void)
 197:Core/Src/main.c **** {
 198:Core/Src/main.c **** 
 199:Core/Src/main.c ****   /* USER CODE BEGIN ADC1_Init 0 */
 200:Core/Src/main.c **** 
 201:Core/Src/main.c ****   /* USER CODE END ADC1_Init 0 */
 202:Core/Src/main.c **** 
 203:Core/Src/main.c ****   ADC_ChannelConfTypeDef sConfig = {0};
 204:Core/Src/main.c **** 
ARM GAS  /tmp/ccbYant3.s 			page 5


 205:Core/Src/main.c ****   /* USER CODE BEGIN ADC1_Init 1 */
 206:Core/Src/main.c **** 
 207:Core/Src/main.c ****   /* USER CODE END ADC1_Init 1 */
 208:Core/Src/main.c **** 
 209:Core/Src/main.c ****   /** Common config
 210:Core/Src/main.c ****   */
 211:Core/Src/main.c ****   hadc1.Instance = ADC1;
 212:Core/Src/main.c ****   hadc1.Init.ScanConvMode = ADC_SCAN_DISABLE;
 213:Core/Src/main.c ****   hadc1.Init.ContinuousConvMode = ENABLE;
 214:Core/Src/main.c ****   hadc1.Init.DiscontinuousConvMode = DISABLE;
 215:Core/Src/main.c ****   hadc1.Init.ExternalTrigConv = ADC_SOFTWARE_START;
 216:Core/Src/main.c ****   hadc1.Init.DataAlign = ADC_DATAALIGN_RIGHT;
 217:Core/Src/main.c ****   hadc1.Init.NbrOfConversion = 1;
 218:Core/Src/main.c ****   if (HAL_ADC_Init(&hadc1) != HAL_OK)
 219:Core/Src/main.c ****   {
 220:Core/Src/main.c ****     Error_Handler();
 221:Core/Src/main.c ****   }
 222:Core/Src/main.c **** 
 223:Core/Src/main.c ****   /** Configure Regular Channel
 224:Core/Src/main.c ****   */
 225:Core/Src/main.c ****   sConfig.Channel = ADC_CHANNEL_0;
 226:Core/Src/main.c ****   sConfig.Rank = ADC_REGULAR_RANK_1;
 227:Core/Src/main.c ****   sConfig.SamplingTime = ADC_SAMPLETIME_1CYCLE_5;
 228:Core/Src/main.c ****   if (HAL_ADC_ConfigChannel(&hadc1, &sConfig) != HAL_OK)
 229:Core/Src/main.c ****   {
 230:Core/Src/main.c ****     Error_Handler();
 231:Core/Src/main.c ****   }
 232:Core/Src/main.c ****   /* USER CODE BEGIN ADC1_Init 2 */
 233:Core/Src/main.c **** 
 234:Core/Src/main.c ****   /* USER CODE END ADC1_Init 2 */
 235:Core/Src/main.c **** 
 236:Core/Src/main.c **** }
 237:Core/Src/main.c **** 
 238:Core/Src/main.c **** /**
 239:Core/Src/main.c ****   * @brief TIM2 Initialization Function
 240:Core/Src/main.c ****   * @param None
 241:Core/Src/main.c ****   * @retval None
 242:Core/Src/main.c ****   */
 243:Core/Src/main.c **** static void MX_TIM2_Init(void)
 244:Core/Src/main.c **** {
 245:Core/Src/main.c **** 
 246:Core/Src/main.c ****   /* USER CODE BEGIN TIM2_Init 0 */
 247:Core/Src/main.c **** 
 248:Core/Src/main.c ****   /* USER CODE END TIM2_Init 0 */
 249:Core/Src/main.c **** 
 250:Core/Src/main.c ****   TIM_MasterConfigTypeDef sMasterConfig = {0};
 251:Core/Src/main.c ****   TIM_OC_InitTypeDef sConfigOC = {0};
 252:Core/Src/main.c **** 
 253:Core/Src/main.c ****   /* USER CODE BEGIN TIM2_Init 1 */
 254:Core/Src/main.c **** 
 255:Core/Src/main.c ****   /* USER CODE END TIM2_Init 1 */
 256:Core/Src/main.c ****   htim2.Instance = TIM2;
 257:Core/Src/main.c ****   htim2.Init.Prescaler = 0;
 258:Core/Src/main.c ****   htim2.Init.CounterMode = TIM_COUNTERMODE_UP;
 259:Core/Src/main.c ****   htim2.Init.Period = 255;
 260:Core/Src/main.c ****   htim2.Init.ClockDivision = TIM_CLOCKDIVISION_DIV1;
 261:Core/Src/main.c ****   htim2.Init.AutoReloadPreload = TIM_AUTORELOAD_PRELOAD_DISABLE;
ARM GAS  /tmp/ccbYant3.s 			page 6


 262:Core/Src/main.c ****   if (HAL_TIM_PWM_Init(&htim2) != HAL_OK)
 263:Core/Src/main.c ****   {
 264:Core/Src/main.c ****     Error_Handler();
 265:Core/Src/main.c ****   }
 266:Core/Src/main.c ****   sMasterConfig.MasterOutputTrigger = TIM_TRGO_RESET;
 267:Core/Src/main.c ****   sMasterConfig.MasterSlaveMode = TIM_MASTERSLAVEMODE_DISABLE;
 268:Core/Src/main.c ****   if (HAL_TIMEx_MasterConfigSynchronization(&htim2, &sMasterConfig) != HAL_OK)
 269:Core/Src/main.c ****   {
 270:Core/Src/main.c ****     Error_Handler();
 271:Core/Src/main.c ****   }
 272:Core/Src/main.c ****   sConfigOC.OCMode = TIM_OCMODE_PWM1;
 273:Core/Src/main.c ****   sConfigOC.Pulse = 0;
 274:Core/Src/main.c ****   sConfigOC.OCPolarity = TIM_OCPOLARITY_HIGH;
 275:Core/Src/main.c ****   sConfigOC.OCFastMode = TIM_OCFAST_DISABLE;
 276:Core/Src/main.c ****   if (HAL_TIM_PWM_ConfigChannel(&htim2, &sConfigOC, TIM_CHANNEL_2) != HAL_OK)
 277:Core/Src/main.c ****   {
 278:Core/Src/main.c ****     Error_Handler();
 279:Core/Src/main.c ****   }
 280:Core/Src/main.c ****   /* USER CODE BEGIN TIM2_Init 2 */
 281:Core/Src/main.c **** 
 282:Core/Src/main.c ****   /* USER CODE END TIM2_Init 2 */
 283:Core/Src/main.c ****   HAL_TIM_MspPostInit(&htim2);
 284:Core/Src/main.c **** 
 285:Core/Src/main.c **** }
 286:Core/Src/main.c **** 
 287:Core/Src/main.c **** /**
 288:Core/Src/main.c ****   * @brief USART1 Initialization Function
 289:Core/Src/main.c ****   * @param None
 290:Core/Src/main.c ****   * @retval None
 291:Core/Src/main.c ****   */
 292:Core/Src/main.c **** static void MX_USART1_UART_Init(void)
 293:Core/Src/main.c **** {
 294:Core/Src/main.c **** 
 295:Core/Src/main.c ****   /* USER CODE BEGIN USART1_Init 0 */
 296:Core/Src/main.c **** 
 297:Core/Src/main.c ****   /* USER CODE END USART1_Init 0 */
 298:Core/Src/main.c **** 
 299:Core/Src/main.c ****   /* USER CODE BEGIN USART1_Init 1 */
 300:Core/Src/main.c **** 
 301:Core/Src/main.c ****   /* USER CODE END USART1_Init 1 */
 302:Core/Src/main.c ****   huart1.Instance = USART1;
 303:Core/Src/main.c ****   huart1.Init.BaudRate = 115200;
 304:Core/Src/main.c ****   huart1.Init.WordLength = UART_WORDLENGTH_8B;
 305:Core/Src/main.c ****   huart1.Init.StopBits = UART_STOPBITS_1;
 306:Core/Src/main.c ****   huart1.Init.Parity = UART_PARITY_NONE;
 307:Core/Src/main.c ****   huart1.Init.Mode = UART_MODE_TX_RX;
 308:Core/Src/main.c ****   huart1.Init.HwFlowCtl = UART_HWCONTROL_NONE;
 309:Core/Src/main.c ****   huart1.Init.OverSampling = UART_OVERSAMPLING_16;
 310:Core/Src/main.c ****   if (HAL_UART_Init(&huart1) != HAL_OK)
 311:Core/Src/main.c ****   {
 312:Core/Src/main.c ****     Error_Handler();
 313:Core/Src/main.c ****   }
 314:Core/Src/main.c ****   /* USER CODE BEGIN USART1_Init 2 */
 315:Core/Src/main.c **** 
 316:Core/Src/main.c ****   /* USER CODE END USART1_Init 2 */
 317:Core/Src/main.c **** 
 318:Core/Src/main.c **** }
ARM GAS  /tmp/ccbYant3.s 			page 7


 319:Core/Src/main.c **** 
 320:Core/Src/main.c **** /**
 321:Core/Src/main.c ****   * Enable DMA controller clock
 322:Core/Src/main.c ****   */
 323:Core/Src/main.c **** static void MX_DMA_Init(void)
 324:Core/Src/main.c **** {
 325:Core/Src/main.c **** 
 326:Core/Src/main.c ****   /* DMA controller clock enable */
 327:Core/Src/main.c ****   __HAL_RCC_DMA1_CLK_ENABLE();
 328:Core/Src/main.c **** 
 329:Core/Src/main.c ****   /* DMA interrupt init */
 330:Core/Src/main.c ****   /* DMA1_Channel1_IRQn interrupt configuration */
 331:Core/Src/main.c ****   HAL_NVIC_SetPriority(DMA1_Channel1_IRQn, 0, 0);
 332:Core/Src/main.c ****   HAL_NVIC_EnableIRQ(DMA1_Channel1_IRQn);
 333:Core/Src/main.c **** 
 334:Core/Src/main.c **** }
 335:Core/Src/main.c **** 
 336:Core/Src/main.c **** /**
 337:Core/Src/main.c ****   * @brief GPIO Initialization Function
 338:Core/Src/main.c ****   * @param None
 339:Core/Src/main.c ****   * @retval None
 340:Core/Src/main.c ****   */
 341:Core/Src/main.c **** static void MX_GPIO_Init(void)
 342:Core/Src/main.c **** {
  26              		.loc 1 342 1 view -0
  27              		.cfi_startproc
  28              		@ args = 0, pretend = 0, frame = 8
  29              		@ frame_needed = 0, uses_anonymous_args = 0
  30              		@ link register save eliminated.
  31 0000 82B0     		sub	sp, sp, #8
  32              	.LCFI0:
  33              		.cfi_def_cfa_offset 8
 343:Core/Src/main.c **** /* USER CODE BEGIN MX_GPIO_Init_1 */
 344:Core/Src/main.c **** /* USER CODE END MX_GPIO_Init_1 */
 345:Core/Src/main.c **** 
 346:Core/Src/main.c ****   /* GPIO Ports Clock Enable */
 347:Core/Src/main.c ****   __HAL_RCC_GPIOD_CLK_ENABLE();
  34              		.loc 1 347 3 view .LVU1
  35              	.LBB4:
  36              		.loc 1 347 3 view .LVU2
  37              		.loc 1 347 3 view .LVU3
  38 0002 0A4B     		ldr	r3, .L3
  39 0004 9A69     		ldr	r2, [r3, #24]
  40 0006 42F02002 		orr	r2, r2, #32
  41 000a 9A61     		str	r2, [r3, #24]
  42              		.loc 1 347 3 view .LVU4
  43 000c 9A69     		ldr	r2, [r3, #24]
  44 000e 02F02002 		and	r2, r2, #32
  45 0012 0092     		str	r2, [sp]
  46              		.loc 1 347 3 view .LVU5
  47 0014 009A     		ldr	r2, [sp]
  48              	.LBE4:
  49              		.loc 1 347 3 view .LVU6
 348:Core/Src/main.c ****   __HAL_RCC_GPIOA_CLK_ENABLE();
  50              		.loc 1 348 3 view .LVU7
  51              	.LBB5:
  52              		.loc 1 348 3 view .LVU8
ARM GAS  /tmp/ccbYant3.s 			page 8


  53              		.loc 1 348 3 view .LVU9
  54 0016 9A69     		ldr	r2, [r3, #24]
  55 0018 42F00402 		orr	r2, r2, #4
  56 001c 9A61     		str	r2, [r3, #24]
  57              		.loc 1 348 3 view .LVU10
  58 001e 9B69     		ldr	r3, [r3, #24]
  59 0020 03F00403 		and	r3, r3, #4
  60 0024 0193     		str	r3, [sp, #4]
  61              		.loc 1 348 3 view .LVU11
  62 0026 019B     		ldr	r3, [sp, #4]
  63              	.LBE5:
  64              		.loc 1 348 3 view .LVU12
 349:Core/Src/main.c **** 
 350:Core/Src/main.c **** /* USER CODE BEGIN MX_GPIO_Init_2 */
 351:Core/Src/main.c **** /* USER CODE END MX_GPIO_Init_2 */
 352:Core/Src/main.c **** }
  65              		.loc 1 352 1 is_stmt 0 view .LVU13
  66 0028 02B0     		add	sp, sp, #8
  67              	.LCFI1:
  68              		.cfi_def_cfa_offset 0
  69              		@ sp needed
  70 002a 7047     		bx	lr
  71              	.L4:
  72              		.align	2
  73              	.L3:
  74 002c 00100240 		.word	1073876992
  75              		.cfi_endproc
  76              	.LFE73:
  78              		.section	.text.MX_DMA_Init,"ax",%progbits
  79              		.align	1
  80              		.syntax unified
  81              		.thumb
  82              		.thumb_func
  83              		.fpu softvfp
  85              	MX_DMA_Init:
  86              	.LFB72:
 324:Core/Src/main.c **** 
  87              		.loc 1 324 1 is_stmt 1 view -0
  88              		.cfi_startproc
  89              		@ args = 0, pretend = 0, frame = 8
  90              		@ frame_needed = 0, uses_anonymous_args = 0
  91 0000 00B5     		push	{lr}
  92              	.LCFI2:
  93              		.cfi_def_cfa_offset 4
  94              		.cfi_offset 14, -4
  95 0002 83B0     		sub	sp, sp, #12
  96              	.LCFI3:
  97              		.cfi_def_cfa_offset 16
 327:Core/Src/main.c **** 
  98              		.loc 1 327 3 view .LVU15
  99              	.LBB6:
 327:Core/Src/main.c **** 
 100              		.loc 1 327 3 view .LVU16
 327:Core/Src/main.c **** 
 101              		.loc 1 327 3 view .LVU17
 102 0004 0A4B     		ldr	r3, .L7
 103 0006 5A69     		ldr	r2, [r3, #20]
ARM GAS  /tmp/ccbYant3.s 			page 9


 104 0008 42F00102 		orr	r2, r2, #1
 105 000c 5A61     		str	r2, [r3, #20]
 327:Core/Src/main.c **** 
 106              		.loc 1 327 3 view .LVU18
 107 000e 5B69     		ldr	r3, [r3, #20]
 108 0010 03F00103 		and	r3, r3, #1
 109 0014 0193     		str	r3, [sp, #4]
 327:Core/Src/main.c **** 
 110              		.loc 1 327 3 view .LVU19
 111 0016 019B     		ldr	r3, [sp, #4]
 112              	.LBE6:
 327:Core/Src/main.c **** 
 113              		.loc 1 327 3 view .LVU20
 331:Core/Src/main.c ****   HAL_NVIC_EnableIRQ(DMA1_Channel1_IRQn);
 114              		.loc 1 331 3 view .LVU21
 115 0018 0022     		movs	r2, #0
 116 001a 1146     		mov	r1, r2
 117 001c 0B20     		movs	r0, #11
 118 001e FFF7FEFF 		bl	HAL_NVIC_SetPriority
 119              	.LVL0:
 332:Core/Src/main.c **** 
 120              		.loc 1 332 3 view .LVU22
 121 0022 0B20     		movs	r0, #11
 122 0024 FFF7FEFF 		bl	HAL_NVIC_EnableIRQ
 123              	.LVL1:
 334:Core/Src/main.c **** 
 124              		.loc 1 334 1 is_stmt 0 view .LVU23
 125 0028 03B0     		add	sp, sp, #12
 126              	.LCFI4:
 127              		.cfi_def_cfa_offset 4
 128              		@ sp needed
 129 002a 5DF804FB 		ldr	pc, [sp], #4
 130              	.L8:
 131 002e 00BF     		.align	2
 132              	.L7:
 133 0030 00100240 		.word	1073876992
 134              		.cfi_endproc
 135              	.LFE72:
 137              		.section	.text.HAL_ADC_ConvCpltCallback,"ax",%progbits
 138              		.align	1
 139              		.global	HAL_ADC_ConvCpltCallback
 140              		.syntax unified
 141              		.thumb
 142              		.thumb_func
 143              		.fpu softvfp
 145              	HAL_ADC_ConvCpltCallback:
 146              	.LVL2:
 147              	.LFB66:
  77:Core/Src/main.c ****   ADCFinis = 1;
 148              		.loc 1 77 1 is_stmt 1 view -0
 149              		.cfi_startproc
 150              		@ args = 0, pretend = 0, frame = 0
 151              		@ frame_needed = 0, uses_anonymous_args = 0
 152              		@ link register save eliminated.
  78:Core/Src/main.c **** }
 153              		.loc 1 78 3 view .LVU25
  78:Core/Src/main.c **** }
ARM GAS  /tmp/ccbYant3.s 			page 10


 154              		.loc 1 78 12 is_stmt 0 view .LVU26
 155 0000 014B     		ldr	r3, .L10
 156 0002 0122     		movs	r2, #1
 157 0004 1A60     		str	r2, [r3]
  79:Core/Src/main.c **** /* USER CODE END 0 */
 158              		.loc 1 79 1 view .LVU27
 159 0006 7047     		bx	lr
 160              	.L11:
 161              		.align	2
 162              	.L10:
 163 0008 00000000 		.word	.LANCHOR0
 164              		.cfi_endproc
 165              	.LFE66:
 167              		.section	.text.Error_Handler,"ax",%progbits
 168              		.align	1
 169              		.global	Error_Handler
 170              		.syntax unified
 171              		.thumb
 172              		.thumb_func
 173              		.fpu softvfp
 175              	Error_Handler:
 176              	.LFB74:
 353:Core/Src/main.c **** 
 354:Core/Src/main.c **** /* USER CODE BEGIN 4 */
 355:Core/Src/main.c **** 
 356:Core/Src/main.c **** /* USER CODE END 4 */
 357:Core/Src/main.c **** 
 358:Core/Src/main.c **** /**
 359:Core/Src/main.c ****   * @brief  This function is executed in case of error occurrence.
 360:Core/Src/main.c ****   * @retval None
 361:Core/Src/main.c ****   */
 362:Core/Src/main.c **** void Error_Handler(void)
 363:Core/Src/main.c **** {
 177              		.loc 1 363 1 is_stmt 1 view -0
 178              		.cfi_startproc
 179              		@ Volatile: function does not return.
 180              		@ args = 0, pretend = 0, frame = 0
 181              		@ frame_needed = 0, uses_anonymous_args = 0
 182              		@ link register save eliminated.
 364:Core/Src/main.c ****   /* USER CODE BEGIN Error_Handler_Debug */
 365:Core/Src/main.c ****   /* User can add his own implementation to report the HAL error return state */
 366:Core/Src/main.c ****   __disable_irq();
 183              		.loc 1 366 3 view .LVU29
 184              	.LBB7:
 185              	.LBI7:
 186              		.file 2 "Drivers/CMSIS/Device/ST/STM32F1xx/Include/cmsis_gcc.h"
   1:Drivers/CMSIS/Device/ST/STM32F1xx/Include/cmsis_gcc.h **** /**************************************************************************//**
   2:Drivers/CMSIS/Device/ST/STM32F1xx/Include/cmsis_gcc.h ****  * @file     cmsis_gcc.h
   3:Drivers/CMSIS/Device/ST/STM32F1xx/Include/cmsis_gcc.h ****  * @brief    CMSIS Cortex-M Core Function/Instruction Header File
   4:Drivers/CMSIS/Device/ST/STM32F1xx/Include/cmsis_gcc.h ****  * @version  V4.30
   5:Drivers/CMSIS/Device/ST/STM32F1xx/Include/cmsis_gcc.h ****  * @date     20. October 2015
   6:Drivers/CMSIS/Device/ST/STM32F1xx/Include/cmsis_gcc.h ****  ******************************************************************************/
   7:Drivers/CMSIS/Device/ST/STM32F1xx/Include/cmsis_gcc.h **** /* Copyright (c) 2009 - 2015 ARM LIMITED
   8:Drivers/CMSIS/Device/ST/STM32F1xx/Include/cmsis_gcc.h **** 
   9:Drivers/CMSIS/Device/ST/STM32F1xx/Include/cmsis_gcc.h ****    All rights reserved.
  10:Drivers/CMSIS/Device/ST/STM32F1xx/Include/cmsis_gcc.h ****    Redistribution and use in source and binary forms, with or without
  11:Drivers/CMSIS/Device/ST/STM32F1xx/Include/cmsis_gcc.h ****    modification, are permitted provided that the following conditions are met:
ARM GAS  /tmp/ccbYant3.s 			page 11


  12:Drivers/CMSIS/Device/ST/STM32F1xx/Include/cmsis_gcc.h ****    - Redistributions of source code must retain the above copyright
  13:Drivers/CMSIS/Device/ST/STM32F1xx/Include/cmsis_gcc.h ****      notice, this list of conditions and the following disclaimer.
  14:Drivers/CMSIS/Device/ST/STM32F1xx/Include/cmsis_gcc.h ****    - Redistributions in binary form must reproduce the above copyright
  15:Drivers/CMSIS/Device/ST/STM32F1xx/Include/cmsis_gcc.h ****      notice, this list of conditions and the following disclaimer in the
  16:Drivers/CMSIS/Device/ST/STM32F1xx/Include/cmsis_gcc.h ****      documentation and/or other materials provided with the distribution.
  17:Drivers/CMSIS/Device/ST/STM32F1xx/Include/cmsis_gcc.h ****    - Neither the name of ARM nor the names of its contributors may be used
  18:Drivers/CMSIS/Device/ST/STM32F1xx/Include/cmsis_gcc.h ****      to endorse or promote products derived from this software without
  19:Drivers/CMSIS/Device/ST/STM32F1xx/Include/cmsis_gcc.h ****      specific prior written permission.
  20:Drivers/CMSIS/Device/ST/STM32F1xx/Include/cmsis_gcc.h ****    *
  21:Drivers/CMSIS/Device/ST/STM32F1xx/Include/cmsis_gcc.h ****    THIS SOFTWARE IS PROVIDED BY THE COPYRIGHT HOLDERS AND CONTRIBUTORS "AS IS"
  22:Drivers/CMSIS/Device/ST/STM32F1xx/Include/cmsis_gcc.h ****    AND ANY EXPRESS OR IMPLIED WARRANTIES, INCLUDING, BUT NOT LIMITED TO, THE
  23:Drivers/CMSIS/Device/ST/STM32F1xx/Include/cmsis_gcc.h ****    IMPLIED WARRANTIES OF MERCHANTABILITY AND FITNESS FOR A PARTICULAR PURPOSE
  24:Drivers/CMSIS/Device/ST/STM32F1xx/Include/cmsis_gcc.h ****    ARE DISCLAIMED. IN NO EVENT SHALL COPYRIGHT HOLDERS AND CONTRIBUTORS BE
  25:Drivers/CMSIS/Device/ST/STM32F1xx/Include/cmsis_gcc.h ****    LIABLE FOR ANY DIRECT, INDIRECT, INCIDENTAL, SPECIAL, EXEMPLARY, OR
  26:Drivers/CMSIS/Device/ST/STM32F1xx/Include/cmsis_gcc.h ****    CONSEQUENTIAL DAMAGES (INCLUDING, BUT NOT LIMITED TO, PROCUREMENT OF
  27:Drivers/CMSIS/Device/ST/STM32F1xx/Include/cmsis_gcc.h ****    SUBSTITUTE GOODS OR SERVICES; LOSS OF USE, DATA, OR PROFITS; OR BUSINESS
  28:Drivers/CMSIS/Device/ST/STM32F1xx/Include/cmsis_gcc.h ****    INTERRUPTION) HOWEVER CAUSED AND ON ANY THEORY OF LIABILITY, WHETHER IN
  29:Drivers/CMSIS/Device/ST/STM32F1xx/Include/cmsis_gcc.h ****    CONTRACT, STRICT LIABILITY, OR TORT (INCLUDING NEGLIGENCE OR OTHERWISE)
  30:Drivers/CMSIS/Device/ST/STM32F1xx/Include/cmsis_gcc.h ****    ARISING IN ANY WAY OUT OF THE USE OF THIS SOFTWARE, EVEN IF ADVISED OF THE
  31:Drivers/CMSIS/Device/ST/STM32F1xx/Include/cmsis_gcc.h ****    POSSIBILITY OF SUCH DAMAGE.
  32:Drivers/CMSIS/Device/ST/STM32F1xx/Include/cmsis_gcc.h ****    ---------------------------------------------------------------------------*/
  33:Drivers/CMSIS/Device/ST/STM32F1xx/Include/cmsis_gcc.h **** 
  34:Drivers/CMSIS/Device/ST/STM32F1xx/Include/cmsis_gcc.h **** 
  35:Drivers/CMSIS/Device/ST/STM32F1xx/Include/cmsis_gcc.h **** #ifndef __CMSIS_GCC_H
  36:Drivers/CMSIS/Device/ST/STM32F1xx/Include/cmsis_gcc.h **** #define __CMSIS_GCC_H
  37:Drivers/CMSIS/Device/ST/STM32F1xx/Include/cmsis_gcc.h **** 
  38:Drivers/CMSIS/Device/ST/STM32F1xx/Include/cmsis_gcc.h **** /* ignore some GCC warnings */
  39:Drivers/CMSIS/Device/ST/STM32F1xx/Include/cmsis_gcc.h **** #if defined ( __GNUC__ )
  40:Drivers/CMSIS/Device/ST/STM32F1xx/Include/cmsis_gcc.h **** #pragma GCC diagnostic push
  41:Drivers/CMSIS/Device/ST/STM32F1xx/Include/cmsis_gcc.h **** #pragma GCC diagnostic ignored "-Wsign-conversion"
  42:Drivers/CMSIS/Device/ST/STM32F1xx/Include/cmsis_gcc.h **** #pragma GCC diagnostic ignored "-Wconversion"
  43:Drivers/CMSIS/Device/ST/STM32F1xx/Include/cmsis_gcc.h **** #pragma GCC diagnostic ignored "-Wunused-parameter"
  44:Drivers/CMSIS/Device/ST/STM32F1xx/Include/cmsis_gcc.h **** #endif
  45:Drivers/CMSIS/Device/ST/STM32F1xx/Include/cmsis_gcc.h **** 
  46:Drivers/CMSIS/Device/ST/STM32F1xx/Include/cmsis_gcc.h **** 
  47:Drivers/CMSIS/Device/ST/STM32F1xx/Include/cmsis_gcc.h **** /* ###########################  Core Function Access  ########################### */
  48:Drivers/CMSIS/Device/ST/STM32F1xx/Include/cmsis_gcc.h **** /** \ingroup  CMSIS_Core_FunctionInterface
  49:Drivers/CMSIS/Device/ST/STM32F1xx/Include/cmsis_gcc.h ****     \defgroup CMSIS_Core_RegAccFunctions CMSIS Core Register Access Functions
  50:Drivers/CMSIS/Device/ST/STM32F1xx/Include/cmsis_gcc.h ****   @{
  51:Drivers/CMSIS/Device/ST/STM32F1xx/Include/cmsis_gcc.h ****  */
  52:Drivers/CMSIS/Device/ST/STM32F1xx/Include/cmsis_gcc.h **** 
  53:Drivers/CMSIS/Device/ST/STM32F1xx/Include/cmsis_gcc.h **** /**
  54:Drivers/CMSIS/Device/ST/STM32F1xx/Include/cmsis_gcc.h ****   \brief   Enable IRQ Interrupts
  55:Drivers/CMSIS/Device/ST/STM32F1xx/Include/cmsis_gcc.h ****   \details Enables IRQ interrupts by clearing the I-bit in the CPSR.
  56:Drivers/CMSIS/Device/ST/STM32F1xx/Include/cmsis_gcc.h ****            Can only be executed in Privileged modes.
  57:Drivers/CMSIS/Device/ST/STM32F1xx/Include/cmsis_gcc.h ****  */
  58:Drivers/CMSIS/Device/ST/STM32F1xx/Include/cmsis_gcc.h **** __attribute__( ( always_inline ) ) __STATIC_INLINE void __enable_irq(void)
  59:Drivers/CMSIS/Device/ST/STM32F1xx/Include/cmsis_gcc.h **** {
  60:Drivers/CMSIS/Device/ST/STM32F1xx/Include/cmsis_gcc.h ****   __ASM volatile ("cpsie i" : : : "memory");
  61:Drivers/CMSIS/Device/ST/STM32F1xx/Include/cmsis_gcc.h **** }
  62:Drivers/CMSIS/Device/ST/STM32F1xx/Include/cmsis_gcc.h **** 
  63:Drivers/CMSIS/Device/ST/STM32F1xx/Include/cmsis_gcc.h **** 
  64:Drivers/CMSIS/Device/ST/STM32F1xx/Include/cmsis_gcc.h **** /**
  65:Drivers/CMSIS/Device/ST/STM32F1xx/Include/cmsis_gcc.h ****   \brief   Disable IRQ Interrupts
  66:Drivers/CMSIS/Device/ST/STM32F1xx/Include/cmsis_gcc.h ****   \details Disables IRQ interrupts by setting the I-bit in the CPSR.
  67:Drivers/CMSIS/Device/ST/STM32F1xx/Include/cmsis_gcc.h ****   Can only be executed in Privileged modes.
  68:Drivers/CMSIS/Device/ST/STM32F1xx/Include/cmsis_gcc.h ****  */
ARM GAS  /tmp/ccbYant3.s 			page 12


  69:Drivers/CMSIS/Device/ST/STM32F1xx/Include/cmsis_gcc.h **** __attribute__( ( always_inline ) ) __STATIC_INLINE void __disable_irq(void)
 187              		.loc 2 69 57 view .LVU30
 188              	.LBB8:
  70:Drivers/CMSIS/Device/ST/STM32F1xx/Include/cmsis_gcc.h **** {
  71:Drivers/CMSIS/Device/ST/STM32F1xx/Include/cmsis_gcc.h ****   __ASM volatile ("cpsid i" : : : "memory");
 189              		.loc 2 71 3 view .LVU31
 190              		.syntax unified
 191              	@ 71 "Drivers/CMSIS/Device/ST/STM32F1xx/Include/cmsis_gcc.h" 1
 192 0000 72B6     		cpsid i
 193              	@ 0 "" 2
 194              		.thumb
 195              		.syntax unified
 196              	.L13:
 197              	.LBE8:
 198              	.LBE7:
 367:Core/Src/main.c ****   while (1)
 199              		.loc 1 367 3 discriminator 1 view .LVU32
 368:Core/Src/main.c ****   {
 369:Core/Src/main.c ****   }
 200              		.loc 1 369 3 discriminator 1 view .LVU33
 367:Core/Src/main.c ****   while (1)
 201              		.loc 1 367 9 discriminator 1 view .LVU34
 202 0002 FEE7     		b	.L13
 203              		.cfi_endproc
 204              	.LFE74:
 206              		.section	.text.MX_ADC1_Init,"ax",%progbits
 207              		.align	1
 208              		.syntax unified
 209              		.thumb
 210              		.thumb_func
 211              		.fpu softvfp
 213              	MX_ADC1_Init:
 214              	.LFB69:
 197:Core/Src/main.c **** 
 215              		.loc 1 197 1 view -0
 216              		.cfi_startproc
 217              		@ args = 0, pretend = 0, frame = 16
 218              		@ frame_needed = 0, uses_anonymous_args = 0
 219 0000 00B5     		push	{lr}
 220              	.LCFI5:
 221              		.cfi_def_cfa_offset 4
 222              		.cfi_offset 14, -4
 223 0002 85B0     		sub	sp, sp, #20
 224              	.LCFI6:
 225              		.cfi_def_cfa_offset 24
 203:Core/Src/main.c **** 
 226              		.loc 1 203 3 view .LVU36
 203:Core/Src/main.c **** 
 227              		.loc 1 203 26 is_stmt 0 view .LVU37
 228 0004 0023     		movs	r3, #0
 229 0006 0193     		str	r3, [sp, #4]
 230 0008 0293     		str	r3, [sp, #8]
 231 000a 0393     		str	r3, [sp, #12]
 211:Core/Src/main.c ****   hadc1.Init.ScanConvMode = ADC_SCAN_DISABLE;
 232              		.loc 1 211 3 is_stmt 1 view .LVU38
 211:Core/Src/main.c ****   hadc1.Init.ScanConvMode = ADC_SCAN_DISABLE;
 233              		.loc 1 211 18 is_stmt 0 view .LVU39
ARM GAS  /tmp/ccbYant3.s 			page 13


 234 000c 0F48     		ldr	r0, .L20
 235 000e 104A     		ldr	r2, .L20+4
 236 0010 0260     		str	r2, [r0]
 212:Core/Src/main.c ****   hadc1.Init.ContinuousConvMode = ENABLE;
 237              		.loc 1 212 3 is_stmt 1 view .LVU40
 212:Core/Src/main.c ****   hadc1.Init.ContinuousConvMode = ENABLE;
 238              		.loc 1 212 27 is_stmt 0 view .LVU41
 239 0012 8360     		str	r3, [r0, #8]
 213:Core/Src/main.c ****   hadc1.Init.DiscontinuousConvMode = DISABLE;
 240              		.loc 1 213 3 is_stmt 1 view .LVU42
 213:Core/Src/main.c ****   hadc1.Init.DiscontinuousConvMode = DISABLE;
 241              		.loc 1 213 33 is_stmt 0 view .LVU43
 242 0014 0122     		movs	r2, #1
 243 0016 0273     		strb	r2, [r0, #12]
 214:Core/Src/main.c ****   hadc1.Init.ExternalTrigConv = ADC_SOFTWARE_START;
 244              		.loc 1 214 3 is_stmt 1 view .LVU44
 214:Core/Src/main.c ****   hadc1.Init.ExternalTrigConv = ADC_SOFTWARE_START;
 245              		.loc 1 214 36 is_stmt 0 view .LVU45
 246 0018 0375     		strb	r3, [r0, #20]
 215:Core/Src/main.c ****   hadc1.Init.DataAlign = ADC_DATAALIGN_RIGHT;
 247              		.loc 1 215 3 is_stmt 1 view .LVU46
 215:Core/Src/main.c ****   hadc1.Init.DataAlign = ADC_DATAALIGN_RIGHT;
 248              		.loc 1 215 31 is_stmt 0 view .LVU47
 249 001a 4FF46021 		mov	r1, #917504
 250 001e C161     		str	r1, [r0, #28]
 216:Core/Src/main.c ****   hadc1.Init.NbrOfConversion = 1;
 251              		.loc 1 216 3 is_stmt 1 view .LVU48
 216:Core/Src/main.c ****   hadc1.Init.NbrOfConversion = 1;
 252              		.loc 1 216 24 is_stmt 0 view .LVU49
 253 0020 4360     		str	r3, [r0, #4]
 217:Core/Src/main.c ****   if (HAL_ADC_Init(&hadc1) != HAL_OK)
 254              		.loc 1 217 3 is_stmt 1 view .LVU50
 217:Core/Src/main.c ****   if (HAL_ADC_Init(&hadc1) != HAL_OK)
 255              		.loc 1 217 30 is_stmt 0 view .LVU51
 256 0022 0261     		str	r2, [r0, #16]
 218:Core/Src/main.c ****   {
 257              		.loc 1 218 3 is_stmt 1 view .LVU52
 218:Core/Src/main.c ****   {
 258              		.loc 1 218 7 is_stmt 0 view .LVU53
 259 0024 FFF7FEFF 		bl	HAL_ADC_Init
 260              	.LVL3:
 218:Core/Src/main.c ****   {
 261              		.loc 1 218 6 view .LVU54
 262 0028 60B9     		cbnz	r0, .L18
 225:Core/Src/main.c ****   sConfig.Rank = ADC_REGULAR_RANK_1;
 263              		.loc 1 225 3 is_stmt 1 view .LVU55
 225:Core/Src/main.c ****   sConfig.Rank = ADC_REGULAR_RANK_1;
 264              		.loc 1 225 19 is_stmt 0 view .LVU56
 265 002a 0023     		movs	r3, #0
 266 002c 0193     		str	r3, [sp, #4]
 226:Core/Src/main.c ****   sConfig.SamplingTime = ADC_SAMPLETIME_1CYCLE_5;
 267              		.loc 1 226 3 is_stmt 1 view .LVU57
 226:Core/Src/main.c ****   sConfig.SamplingTime = ADC_SAMPLETIME_1CYCLE_5;
 268              		.loc 1 226 16 is_stmt 0 view .LVU58
 269 002e 0122     		movs	r2, #1
 270 0030 0292     		str	r2, [sp, #8]
 227:Core/Src/main.c ****   if (HAL_ADC_ConfigChannel(&hadc1, &sConfig) != HAL_OK)
ARM GAS  /tmp/ccbYant3.s 			page 14


 271              		.loc 1 227 3 is_stmt 1 view .LVU59
 227:Core/Src/main.c ****   if (HAL_ADC_ConfigChannel(&hadc1, &sConfig) != HAL_OK)
 272              		.loc 1 227 24 is_stmt 0 view .LVU60
 273 0032 0393     		str	r3, [sp, #12]
 228:Core/Src/main.c ****   {
 274              		.loc 1 228 3 is_stmt 1 view .LVU61
 228:Core/Src/main.c ****   {
 275              		.loc 1 228 7 is_stmt 0 view .LVU62
 276 0034 01A9     		add	r1, sp, #4
 277 0036 0548     		ldr	r0, .L20
 278 0038 FFF7FEFF 		bl	HAL_ADC_ConfigChannel
 279              	.LVL4:
 228:Core/Src/main.c ****   {
 280              		.loc 1 228 6 view .LVU63
 281 003c 20B9     		cbnz	r0, .L19
 236:Core/Src/main.c **** 
 282              		.loc 1 236 1 view .LVU64
 283 003e 05B0     		add	sp, sp, #20
 284              	.LCFI7:
 285              		.cfi_remember_state
 286              		.cfi_def_cfa_offset 4
 287              		@ sp needed
 288 0040 5DF804FB 		ldr	pc, [sp], #4
 289              	.L18:
 290              	.LCFI8:
 291              		.cfi_restore_state
 220:Core/Src/main.c ****   }
 292              		.loc 1 220 5 is_stmt 1 view .LVU65
 293 0044 FFF7FEFF 		bl	Error_Handler
 294              	.LVL5:
 295              	.L19:
 230:Core/Src/main.c ****   }
 296              		.loc 1 230 5 view .LVU66
 297 0048 FFF7FEFF 		bl	Error_Handler
 298              	.LVL6:
 299              	.L21:
 300              		.align	2
 301              	.L20:
 302 004c 00000000 		.word	.LANCHOR1
 303 0050 00240140 		.word	1073816576
 304              		.cfi_endproc
 305              	.LFE69:
 307              		.section	.text.MX_USART1_UART_Init,"ax",%progbits
 308              		.align	1
 309              		.syntax unified
 310              		.thumb
 311              		.thumb_func
 312              		.fpu softvfp
 314              	MX_USART1_UART_Init:
 315              	.LFB71:
 293:Core/Src/main.c **** 
 316              		.loc 1 293 1 view -0
 317              		.cfi_startproc
 318              		@ args = 0, pretend = 0, frame = 0
 319              		@ frame_needed = 0, uses_anonymous_args = 0
 320 0000 08B5     		push	{r3, lr}
 321              	.LCFI9:
ARM GAS  /tmp/ccbYant3.s 			page 15


 322              		.cfi_def_cfa_offset 8
 323              		.cfi_offset 3, -8
 324              		.cfi_offset 14, -4
 302:Core/Src/main.c ****   huart1.Init.BaudRate = 115200;
 325              		.loc 1 302 3 view .LVU68
 302:Core/Src/main.c ****   huart1.Init.BaudRate = 115200;
 326              		.loc 1 302 19 is_stmt 0 view .LVU69
 327 0002 0A48     		ldr	r0, .L26
 328 0004 0A4B     		ldr	r3, .L26+4
 329 0006 0360     		str	r3, [r0]
 303:Core/Src/main.c ****   huart1.Init.WordLength = UART_WORDLENGTH_8B;
 330              		.loc 1 303 3 is_stmt 1 view .LVU70
 303:Core/Src/main.c ****   huart1.Init.WordLength = UART_WORDLENGTH_8B;
 331              		.loc 1 303 24 is_stmt 0 view .LVU71
 332 0008 4FF4E133 		mov	r3, #115200
 333 000c 4360     		str	r3, [r0, #4]
 304:Core/Src/main.c ****   huart1.Init.StopBits = UART_STOPBITS_1;
 334              		.loc 1 304 3 is_stmt 1 view .LVU72
 304:Core/Src/main.c ****   huart1.Init.StopBits = UART_STOPBITS_1;
 335              		.loc 1 304 26 is_stmt 0 view .LVU73
 336 000e 0023     		movs	r3, #0
 337 0010 8360     		str	r3, [r0, #8]
 305:Core/Src/main.c ****   huart1.Init.Parity = UART_PARITY_NONE;
 338              		.loc 1 305 3 is_stmt 1 view .LVU74
 305:Core/Src/main.c ****   huart1.Init.Parity = UART_PARITY_NONE;
 339              		.loc 1 305 24 is_stmt 0 view .LVU75
 340 0012 C360     		str	r3, [r0, #12]
 306:Core/Src/main.c ****   huart1.Init.Mode = UART_MODE_TX_RX;
 341              		.loc 1 306 3 is_stmt 1 view .LVU76
 306:Core/Src/main.c ****   huart1.Init.Mode = UART_MODE_TX_RX;
 342              		.loc 1 306 22 is_stmt 0 view .LVU77
 343 0014 0361     		str	r3, [r0, #16]
 307:Core/Src/main.c ****   huart1.Init.HwFlowCtl = UART_HWCONTROL_NONE;
 344              		.loc 1 307 3 is_stmt 1 view .LVU78
 307:Core/Src/main.c ****   huart1.Init.HwFlowCtl = UART_HWCONTROL_NONE;
 345              		.loc 1 307 20 is_stmt 0 view .LVU79
 346 0016 0C22     		movs	r2, #12
 347 0018 4261     		str	r2, [r0, #20]
 308:Core/Src/main.c ****   huart1.Init.OverSampling = UART_OVERSAMPLING_16;
 348              		.loc 1 308 3 is_stmt 1 view .LVU80
 308:Core/Src/main.c ****   huart1.Init.OverSampling = UART_OVERSAMPLING_16;
 349              		.loc 1 308 25 is_stmt 0 view .LVU81
 350 001a 8361     		str	r3, [r0, #24]
 309:Core/Src/main.c ****   if (HAL_UART_Init(&huart1) != HAL_OK)
 351              		.loc 1 309 3 is_stmt 1 view .LVU82
 309:Core/Src/main.c ****   if (HAL_UART_Init(&huart1) != HAL_OK)
 352              		.loc 1 309 28 is_stmt 0 view .LVU83
 353 001c C361     		str	r3, [r0, #28]
 310:Core/Src/main.c ****   {
 354              		.loc 1 310 3 is_stmt 1 view .LVU84
 310:Core/Src/main.c ****   {
 355              		.loc 1 310 7 is_stmt 0 view .LVU85
 356 001e FFF7FEFF 		bl	HAL_UART_Init
 357              	.LVL7:
 310:Core/Src/main.c ****   {
 358              		.loc 1 310 6 view .LVU86
 359 0022 00B9     		cbnz	r0, .L25
ARM GAS  /tmp/ccbYant3.s 			page 16


 318:Core/Src/main.c **** 
 360              		.loc 1 318 1 view .LVU87
 361 0024 08BD     		pop	{r3, pc}
 362              	.L25:
 312:Core/Src/main.c ****   }
 363              		.loc 1 312 5 is_stmt 1 view .LVU88
 364 0026 FFF7FEFF 		bl	Error_Handler
 365              	.LVL8:
 366              	.L27:
 367 002a 00BF     		.align	2
 368              	.L26:
 369 002c 00000000 		.word	.LANCHOR2
 370 0030 00380140 		.word	1073821696
 371              		.cfi_endproc
 372              	.LFE71:
 374              		.section	.text.MX_TIM2_Init,"ax",%progbits
 375              		.align	1
 376              		.syntax unified
 377              		.thumb
 378              		.thumb_func
 379              		.fpu softvfp
 381              	MX_TIM2_Init:
 382              	.LFB70:
 244:Core/Src/main.c **** 
 383              		.loc 1 244 1 view -0
 384              		.cfi_startproc
 385              		@ args = 0, pretend = 0, frame = 40
 386              		@ frame_needed = 0, uses_anonymous_args = 0
 387 0000 00B5     		push	{lr}
 388              	.LCFI10:
 389              		.cfi_def_cfa_offset 4
 390              		.cfi_offset 14, -4
 391 0002 8BB0     		sub	sp, sp, #44
 392              	.LCFI11:
 393              		.cfi_def_cfa_offset 48
 250:Core/Src/main.c ****   TIM_OC_InitTypeDef sConfigOC = {0};
 394              		.loc 1 250 3 view .LVU90
 250:Core/Src/main.c ****   TIM_OC_InitTypeDef sConfigOC = {0};
 395              		.loc 1 250 27 is_stmt 0 view .LVU91
 396 0004 0023     		movs	r3, #0
 397 0006 0893     		str	r3, [sp, #32]
 398 0008 0993     		str	r3, [sp, #36]
 251:Core/Src/main.c **** 
 399              		.loc 1 251 3 is_stmt 1 view .LVU92
 251:Core/Src/main.c **** 
 400              		.loc 1 251 22 is_stmt 0 view .LVU93
 401 000a 0193     		str	r3, [sp, #4]
 402 000c 0293     		str	r3, [sp, #8]
 403 000e 0393     		str	r3, [sp, #12]
 404 0010 0493     		str	r3, [sp, #16]
 405 0012 0593     		str	r3, [sp, #20]
 406 0014 0693     		str	r3, [sp, #24]
 407 0016 0793     		str	r3, [sp, #28]
 256:Core/Src/main.c ****   htim2.Init.Prescaler = 0;
 408              		.loc 1 256 3 is_stmt 1 view .LVU94
 256:Core/Src/main.c ****   htim2.Init.Prescaler = 0;
 409              		.loc 1 256 18 is_stmt 0 view .LVU95
ARM GAS  /tmp/ccbYant3.s 			page 17


 410 0018 1648     		ldr	r0, .L36
 411 001a 4FF08042 		mov	r2, #1073741824
 412 001e 0260     		str	r2, [r0]
 257:Core/Src/main.c ****   htim2.Init.CounterMode = TIM_COUNTERMODE_UP;
 413              		.loc 1 257 3 is_stmt 1 view .LVU96
 257:Core/Src/main.c ****   htim2.Init.CounterMode = TIM_COUNTERMODE_UP;
 414              		.loc 1 257 24 is_stmt 0 view .LVU97
 415 0020 4360     		str	r3, [r0, #4]
 258:Core/Src/main.c ****   htim2.Init.Period = 255;
 416              		.loc 1 258 3 is_stmt 1 view .LVU98
 258:Core/Src/main.c ****   htim2.Init.Period = 255;
 417              		.loc 1 258 26 is_stmt 0 view .LVU99
 418 0022 8360     		str	r3, [r0, #8]
 259:Core/Src/main.c ****   htim2.Init.ClockDivision = TIM_CLOCKDIVISION_DIV1;
 419              		.loc 1 259 3 is_stmt 1 view .LVU100
 259:Core/Src/main.c ****   htim2.Init.ClockDivision = TIM_CLOCKDIVISION_DIV1;
 420              		.loc 1 259 21 is_stmt 0 view .LVU101
 421 0024 FF22     		movs	r2, #255
 422 0026 C260     		str	r2, [r0, #12]
 260:Core/Src/main.c ****   htim2.Init.AutoReloadPreload = TIM_AUTORELOAD_PRELOAD_DISABLE;
 423              		.loc 1 260 3 is_stmt 1 view .LVU102
 260:Core/Src/main.c ****   htim2.Init.AutoReloadPreload = TIM_AUTORELOAD_PRELOAD_DISABLE;
 424              		.loc 1 260 28 is_stmt 0 view .LVU103
 425 0028 0361     		str	r3, [r0, #16]
 261:Core/Src/main.c ****   if (HAL_TIM_PWM_Init(&htim2) != HAL_OK)
 426              		.loc 1 261 3 is_stmt 1 view .LVU104
 261:Core/Src/main.c ****   if (HAL_TIM_PWM_Init(&htim2) != HAL_OK)
 427              		.loc 1 261 32 is_stmt 0 view .LVU105
 428 002a 8361     		str	r3, [r0, #24]
 262:Core/Src/main.c ****   {
 429              		.loc 1 262 3 is_stmt 1 view .LVU106
 262:Core/Src/main.c ****   {
 430              		.loc 1 262 7 is_stmt 0 view .LVU107
 431 002c FFF7FEFF 		bl	HAL_TIM_PWM_Init
 432              	.LVL9:
 262:Core/Src/main.c ****   {
 433              		.loc 1 262 6 view .LVU108
 434 0030 D0B9     		cbnz	r0, .L33
 266:Core/Src/main.c ****   sMasterConfig.MasterSlaveMode = TIM_MASTERSLAVEMODE_DISABLE;
 435              		.loc 1 266 3 is_stmt 1 view .LVU109
 266:Core/Src/main.c ****   sMasterConfig.MasterSlaveMode = TIM_MASTERSLAVEMODE_DISABLE;
 436              		.loc 1 266 37 is_stmt 0 view .LVU110
 437 0032 0023     		movs	r3, #0
 438 0034 0893     		str	r3, [sp, #32]
 267:Core/Src/main.c ****   if (HAL_TIMEx_MasterConfigSynchronization(&htim2, &sMasterConfig) != HAL_OK)
 439              		.loc 1 267 3 is_stmt 1 view .LVU111
 267:Core/Src/main.c ****   if (HAL_TIMEx_MasterConfigSynchronization(&htim2, &sMasterConfig) != HAL_OK)
 440              		.loc 1 267 33 is_stmt 0 view .LVU112
 441 0036 0993     		str	r3, [sp, #36]
 268:Core/Src/main.c ****   {
 442              		.loc 1 268 3 is_stmt 1 view .LVU113
 268:Core/Src/main.c ****   {
 443              		.loc 1 268 7 is_stmt 0 view .LVU114
 444 0038 08A9     		add	r1, sp, #32
 445 003a 0E48     		ldr	r0, .L36
 446 003c FFF7FEFF 		bl	HAL_TIMEx_MasterConfigSynchronization
 447              	.LVL10:
ARM GAS  /tmp/ccbYant3.s 			page 18


 268:Core/Src/main.c ****   {
 448              		.loc 1 268 6 view .LVU115
 449 0040 A0B9     		cbnz	r0, .L34
 272:Core/Src/main.c ****   sConfigOC.Pulse = 0;
 450              		.loc 1 272 3 is_stmt 1 view .LVU116
 272:Core/Src/main.c ****   sConfigOC.Pulse = 0;
 451              		.loc 1 272 20 is_stmt 0 view .LVU117
 452 0042 6023     		movs	r3, #96
 453 0044 0193     		str	r3, [sp, #4]
 273:Core/Src/main.c ****   sConfigOC.OCPolarity = TIM_OCPOLARITY_HIGH;
 454              		.loc 1 273 3 is_stmt 1 view .LVU118
 273:Core/Src/main.c ****   sConfigOC.OCPolarity = TIM_OCPOLARITY_HIGH;
 455              		.loc 1 273 19 is_stmt 0 view .LVU119
 456 0046 0023     		movs	r3, #0
 457 0048 0293     		str	r3, [sp, #8]
 274:Core/Src/main.c ****   sConfigOC.OCFastMode = TIM_OCFAST_DISABLE;
 458              		.loc 1 274 3 is_stmt 1 view .LVU120
 274:Core/Src/main.c ****   sConfigOC.OCFastMode = TIM_OCFAST_DISABLE;
 459              		.loc 1 274 24 is_stmt 0 view .LVU121
 460 004a 0393     		str	r3, [sp, #12]
 275:Core/Src/main.c ****   if (HAL_TIM_PWM_ConfigChannel(&htim2, &sConfigOC, TIM_CHANNEL_2) != HAL_OK)
 461              		.loc 1 275 3 is_stmt 1 view .LVU122
 275:Core/Src/main.c ****   if (HAL_TIM_PWM_ConfigChannel(&htim2, &sConfigOC, TIM_CHANNEL_2) != HAL_OK)
 462              		.loc 1 275 24 is_stmt 0 view .LVU123
 463 004c 0593     		str	r3, [sp, #20]
 276:Core/Src/main.c ****   {
 464              		.loc 1 276 3 is_stmt 1 view .LVU124
 276:Core/Src/main.c ****   {
 465              		.loc 1 276 7 is_stmt 0 view .LVU125
 466 004e 0422     		movs	r2, #4
 467 0050 0DEB0201 		add	r1, sp, r2
 468 0054 0748     		ldr	r0, .L36
 469 0056 FFF7FEFF 		bl	HAL_TIM_PWM_ConfigChannel
 470              	.LVL11:
 276:Core/Src/main.c ****   {
 471              		.loc 1 276 6 view .LVU126
 472 005a 48B9     		cbnz	r0, .L35
 283:Core/Src/main.c **** 
 473              		.loc 1 283 3 is_stmt 1 view .LVU127
 474 005c 0548     		ldr	r0, .L36
 475 005e FFF7FEFF 		bl	HAL_TIM_MspPostInit
 476              	.LVL12:
 285:Core/Src/main.c **** 
 477              		.loc 1 285 1 is_stmt 0 view .LVU128
 478 0062 0BB0     		add	sp, sp, #44
 479              	.LCFI12:
 480              		.cfi_remember_state
 481              		.cfi_def_cfa_offset 4
 482              		@ sp needed
 483 0064 5DF804FB 		ldr	pc, [sp], #4
 484              	.L33:
 485              	.LCFI13:
 486              		.cfi_restore_state
 264:Core/Src/main.c ****   }
 487              		.loc 1 264 5 is_stmt 1 view .LVU129
 488 0068 FFF7FEFF 		bl	Error_Handler
 489              	.LVL13:
ARM GAS  /tmp/ccbYant3.s 			page 19


 490              	.L34:
 270:Core/Src/main.c ****   }
 491              		.loc 1 270 5 view .LVU130
 492 006c FFF7FEFF 		bl	Error_Handler
 493              	.LVL14:
 494              	.L35:
 278:Core/Src/main.c ****   }
 495              		.loc 1 278 5 view .LVU131
 496 0070 FFF7FEFF 		bl	Error_Handler
 497              	.LVL15:
 498              	.L37:
 499              		.align	2
 500              	.L36:
 501 0074 00000000 		.word	.LANCHOR3
 502              		.cfi_endproc
 503              	.LFE70:
 505              		.section	.text.SystemClock_Config,"ax",%progbits
 506              		.align	1
 507              		.global	SystemClock_Config
 508              		.syntax unified
 509              		.thumb
 510              		.thumb_func
 511              		.fpu softvfp
 513              	SystemClock_Config:
 514              	.LFB68:
 150:Core/Src/main.c ****   RCC_OscInitTypeDef RCC_OscInitStruct = {0};
 515              		.loc 1 150 1 view -0
 516              		.cfi_startproc
 517              		@ args = 0, pretend = 0, frame = 80
 518              		@ frame_needed = 0, uses_anonymous_args = 0
 519 0000 00B5     		push	{lr}
 520              	.LCFI14:
 521              		.cfi_def_cfa_offset 4
 522              		.cfi_offset 14, -4
 523 0002 95B0     		sub	sp, sp, #84
 524              	.LCFI15:
 525              		.cfi_def_cfa_offset 88
 151:Core/Src/main.c ****   RCC_ClkInitTypeDef RCC_ClkInitStruct = {0};
 526              		.loc 1 151 3 view .LVU133
 151:Core/Src/main.c ****   RCC_ClkInitTypeDef RCC_ClkInitStruct = {0};
 527              		.loc 1 151 22 is_stmt 0 view .LVU134
 528 0004 2822     		movs	r2, #40
 529 0006 0021     		movs	r1, #0
 530 0008 0DEB0200 		add	r0, sp, r2
 531 000c FFF7FEFF 		bl	memset
 532              	.LVL16:
 152:Core/Src/main.c ****   RCC_PeriphCLKInitTypeDef PeriphClkInit = {0};
 533              		.loc 1 152 3 is_stmt 1 view .LVU135
 152:Core/Src/main.c ****   RCC_PeriphCLKInitTypeDef PeriphClkInit = {0};
 534              		.loc 1 152 22 is_stmt 0 view .LVU136
 535 0010 0023     		movs	r3, #0
 536 0012 0593     		str	r3, [sp, #20]
 537 0014 0693     		str	r3, [sp, #24]
 538 0016 0793     		str	r3, [sp, #28]
 539 0018 0893     		str	r3, [sp, #32]
 540 001a 0993     		str	r3, [sp, #36]
 153:Core/Src/main.c **** 
ARM GAS  /tmp/ccbYant3.s 			page 20


 541              		.loc 1 153 3 is_stmt 1 view .LVU137
 153:Core/Src/main.c **** 
 542              		.loc 1 153 28 is_stmt 0 view .LVU138
 543 001c 0193     		str	r3, [sp, #4]
 544 001e 0293     		str	r3, [sp, #8]
 545 0020 0393     		str	r3, [sp, #12]
 546 0022 0493     		str	r3, [sp, #16]
 158:Core/Src/main.c ****   RCC_OscInitStruct.HSEState = RCC_HSE_ON;
 547              		.loc 1 158 3 is_stmt 1 view .LVU139
 158:Core/Src/main.c ****   RCC_OscInitStruct.HSEState = RCC_HSE_ON;
 548              		.loc 1 158 36 is_stmt 0 view .LVU140
 549 0024 0122     		movs	r2, #1
 550 0026 0A92     		str	r2, [sp, #40]
 159:Core/Src/main.c ****   RCC_OscInitStruct.HSEPredivValue = RCC_HSE_PREDIV_DIV1;
 551              		.loc 1 159 3 is_stmt 1 view .LVU141
 159:Core/Src/main.c ****   RCC_OscInitStruct.HSEPredivValue = RCC_HSE_PREDIV_DIV1;
 552              		.loc 1 159 30 is_stmt 0 view .LVU142
 553 0028 4FF48033 		mov	r3, #65536
 554 002c 0B93     		str	r3, [sp, #44]
 160:Core/Src/main.c ****   RCC_OscInitStruct.HSIState = RCC_HSI_ON;
 555              		.loc 1 160 3 is_stmt 1 view .LVU143
 161:Core/Src/main.c ****   RCC_OscInitStruct.PLL.PLLState = RCC_PLL_ON;
 556              		.loc 1 161 3 view .LVU144
 161:Core/Src/main.c ****   RCC_OscInitStruct.PLL.PLLState = RCC_PLL_ON;
 557              		.loc 1 161 30 is_stmt 0 view .LVU145
 558 002e 0E92     		str	r2, [sp, #56]
 162:Core/Src/main.c ****   RCC_OscInitStruct.PLL.PLLSource = RCC_PLLSOURCE_HSE;
 559              		.loc 1 162 3 is_stmt 1 view .LVU146
 162:Core/Src/main.c ****   RCC_OscInitStruct.PLL.PLLSource = RCC_PLLSOURCE_HSE;
 560              		.loc 1 162 34 is_stmt 0 view .LVU147
 561 0030 0222     		movs	r2, #2
 562 0032 1192     		str	r2, [sp, #68]
 163:Core/Src/main.c ****   RCC_OscInitStruct.PLL.PLLMUL = RCC_PLL_MUL9;
 563              		.loc 1 163 3 is_stmt 1 view .LVU148
 163:Core/Src/main.c ****   RCC_OscInitStruct.PLL.PLLMUL = RCC_PLL_MUL9;
 564              		.loc 1 163 35 is_stmt 0 view .LVU149
 565 0034 1293     		str	r3, [sp, #72]
 164:Core/Src/main.c ****   if (HAL_RCC_OscConfig(&RCC_OscInitStruct) != HAL_OK)
 566              		.loc 1 164 3 is_stmt 1 view .LVU150
 164:Core/Src/main.c ****   if (HAL_RCC_OscConfig(&RCC_OscInitStruct) != HAL_OK)
 567              		.loc 1 164 32 is_stmt 0 view .LVU151
 568 0036 4FF4E013 		mov	r3, #1835008
 569 003a 1393     		str	r3, [sp, #76]
 165:Core/Src/main.c ****   {
 570              		.loc 1 165 3 is_stmt 1 view .LVU152
 165:Core/Src/main.c ****   {
 571              		.loc 1 165 7 is_stmt 0 view .LVU153
 572 003c 0AA8     		add	r0, sp, #40
 573 003e FFF7FEFF 		bl	HAL_RCC_OscConfig
 574              	.LVL17:
 165:Core/Src/main.c ****   {
 575              		.loc 1 165 6 view .LVU154
 576 0042 C8B9     		cbnz	r0, .L43
 172:Core/Src/main.c ****                               |RCC_CLOCKTYPE_PCLK1|RCC_CLOCKTYPE_PCLK2;
 577              		.loc 1 172 3 is_stmt 1 view .LVU155
 172:Core/Src/main.c ****                               |RCC_CLOCKTYPE_PCLK1|RCC_CLOCKTYPE_PCLK2;
 578              		.loc 1 172 31 is_stmt 0 view .LVU156
ARM GAS  /tmp/ccbYant3.s 			page 21


 579 0044 0F23     		movs	r3, #15
 580 0046 0593     		str	r3, [sp, #20]
 174:Core/Src/main.c ****   RCC_ClkInitStruct.AHBCLKDivider = RCC_SYSCLK_DIV1;
 581              		.loc 1 174 3 is_stmt 1 view .LVU157
 174:Core/Src/main.c ****   RCC_ClkInitStruct.AHBCLKDivider = RCC_SYSCLK_DIV1;
 582              		.loc 1 174 34 is_stmt 0 view .LVU158
 583 0048 0221     		movs	r1, #2
 584 004a 0691     		str	r1, [sp, #24]
 175:Core/Src/main.c ****   RCC_ClkInitStruct.APB1CLKDivider = RCC_HCLK_DIV2;
 585              		.loc 1 175 3 is_stmt 1 view .LVU159
 175:Core/Src/main.c ****   RCC_ClkInitStruct.APB1CLKDivider = RCC_HCLK_DIV2;
 586              		.loc 1 175 35 is_stmt 0 view .LVU160
 587 004c 0023     		movs	r3, #0
 588 004e 0793     		str	r3, [sp, #28]
 176:Core/Src/main.c ****   RCC_ClkInitStruct.APB2CLKDivider = RCC_HCLK_DIV1;
 589              		.loc 1 176 3 is_stmt 1 view .LVU161
 176:Core/Src/main.c ****   RCC_ClkInitStruct.APB2CLKDivider = RCC_HCLK_DIV1;
 590              		.loc 1 176 36 is_stmt 0 view .LVU162
 591 0050 4FF48062 		mov	r2, #1024
 592 0054 0892     		str	r2, [sp, #32]
 177:Core/Src/main.c **** 
 593              		.loc 1 177 3 is_stmt 1 view .LVU163
 177:Core/Src/main.c **** 
 594              		.loc 1 177 36 is_stmt 0 view .LVU164
 595 0056 0993     		str	r3, [sp, #36]
 179:Core/Src/main.c ****   {
 596              		.loc 1 179 3 is_stmt 1 view .LVU165
 179:Core/Src/main.c ****   {
 597              		.loc 1 179 7 is_stmt 0 view .LVU166
 598 0058 05A8     		add	r0, sp, #20
 599 005a FFF7FEFF 		bl	HAL_RCC_ClockConfig
 600              	.LVL18:
 179:Core/Src/main.c ****   {
 601              		.loc 1 179 6 view .LVU167
 602 005e 68B9     		cbnz	r0, .L44
 183:Core/Src/main.c ****   PeriphClkInit.AdcClockSelection = RCC_ADCPCLK2_DIV6;
 603              		.loc 1 183 3 is_stmt 1 view .LVU168
 183:Core/Src/main.c ****   PeriphClkInit.AdcClockSelection = RCC_ADCPCLK2_DIV6;
 604              		.loc 1 183 38 is_stmt 0 view .LVU169
 605 0060 0223     		movs	r3, #2
 606 0062 0193     		str	r3, [sp, #4]
 184:Core/Src/main.c ****   if (HAL_RCCEx_PeriphCLKConfig(&PeriphClkInit) != HAL_OK)
 607              		.loc 1 184 3 is_stmt 1 view .LVU170
 184:Core/Src/main.c ****   if (HAL_RCCEx_PeriphCLKConfig(&PeriphClkInit) != HAL_OK)
 608              		.loc 1 184 35 is_stmt 0 view .LVU171
 609 0064 4FF40043 		mov	r3, #32768
 610 0068 0393     		str	r3, [sp, #12]
 185:Core/Src/main.c ****   {
 611              		.loc 1 185 3 is_stmt 1 view .LVU172
 185:Core/Src/main.c ****   {
 612              		.loc 1 185 7 is_stmt 0 view .LVU173
 613 006a 01A8     		add	r0, sp, #4
 614 006c FFF7FEFF 		bl	HAL_RCCEx_PeriphCLKConfig
 615              	.LVL19:
 185:Core/Src/main.c ****   {
 616              		.loc 1 185 6 view .LVU174
 617 0070 30B9     		cbnz	r0, .L45
ARM GAS  /tmp/ccbYant3.s 			page 22


 189:Core/Src/main.c **** 
 618              		.loc 1 189 1 view .LVU175
 619 0072 15B0     		add	sp, sp, #84
 620              	.LCFI16:
 621              		.cfi_remember_state
 622              		.cfi_def_cfa_offset 4
 623              		@ sp needed
 624 0074 5DF804FB 		ldr	pc, [sp], #4
 625              	.L43:
 626              	.LCFI17:
 627              		.cfi_restore_state
 167:Core/Src/main.c ****   }
 628              		.loc 1 167 5 is_stmt 1 view .LVU176
 629 0078 FFF7FEFF 		bl	Error_Handler
 630              	.LVL20:
 631              	.L44:
 181:Core/Src/main.c ****   }
 632              		.loc 1 181 5 view .LVU177
 633 007c FFF7FEFF 		bl	Error_Handler
 634              	.LVL21:
 635              	.L45:
 187:Core/Src/main.c ****   }
 636              		.loc 1 187 5 view .LVU178
 637 0080 FFF7FEFF 		bl	Error_Handler
 638              	.LVL22:
 639              		.cfi_endproc
 640              	.LFE68:
 642              		.section	.text.main,"ax",%progbits
 643              		.align	1
 644              		.global	main
 645              		.syntax unified
 646              		.thumb
 647              		.thumb_func
 648              		.fpu softvfp
 650              	main:
 651              	.LFB67:
  87:Core/Src/main.c **** 
 652              		.loc 1 87 1 view -0
 653              		.cfi_startproc
 654              		@ args = 0, pretend = 0, frame = 0
 655              		@ frame_needed = 0, uses_anonymous_args = 0
 656 0000 10B5     		push	{r4, lr}
 657              	.LCFI18:
 658              		.cfi_def_cfa_offset 8
 659              		.cfi_offset 4, -8
 660              		.cfi_offset 14, -4
  96:Core/Src/main.c **** 
 661              		.loc 1 96 3 view .LVU180
 662 0002 FFF7FEFF 		bl	HAL_Init
 663              	.LVL23:
 103:Core/Src/main.c **** 
 664              		.loc 1 103 3 view .LVU181
 665 0006 FFF7FEFF 		bl	SystemClock_Config
 666              	.LVL24:
 110:Core/Src/main.c ****   MX_DMA_Init();
 667              		.loc 1 110 3 view .LVU182
 668 000a FFF7FEFF 		bl	MX_GPIO_Init
ARM GAS  /tmp/ccbYant3.s 			page 23


 669              	.LVL25:
 111:Core/Src/main.c ****   MX_ADC1_Init();
 670              		.loc 1 111 3 view .LVU183
 671 000e FFF7FEFF 		bl	MX_DMA_Init
 672              	.LVL26:
 112:Core/Src/main.c ****   MX_USART1_UART_Init();
 673              		.loc 1 112 3 view .LVU184
 674 0012 FFF7FEFF 		bl	MX_ADC1_Init
 675              	.LVL27:
 113:Core/Src/main.c ****   MX_TIM2_Init();
 676              		.loc 1 113 3 view .LVU185
 677 0016 FFF7FEFF 		bl	MX_USART1_UART_Init
 678              	.LVL28:
 114:Core/Src/main.c ****   /* USER CODE BEGIN 2 */
 679              		.loc 1 114 3 view .LVU186
 680 001a FFF7FEFF 		bl	MX_TIM2_Init
 681              	.LVL29:
 117:Core/Src/main.c **** 
 682              		.loc 1 117 3 view .LVU187
 683 001e 0421     		movs	r1, #4
 684 0020 1348     		ldr	r0, .L53
 685 0022 FFF7FEFF 		bl	HAL_TIM_PWM_Start
 686              	.LVL30:
 119:Core/Src/main.c **** 
 687              		.loc 1 119 4 view .LVU188
 688 0026 0122     		movs	r2, #1
 689 0028 1249     		ldr	r1, .L53+4
 690 002a 1348     		ldr	r0, .L53+8
 691 002c FFF7FEFF 		bl	HAL_ADC_Start_DMA
 692              	.LVL31:
 693 0030 1BE0     		b	.L51
 694              	.LVL32:
 695              	.L48:
 696              	.LBB9:
 129:Core/Src/main.c ****       HAL_Delay(5);
 697              		.loc 1 129 7 discriminator 3 view .LVU189
 698 0032 0F4B     		ldr	r3, .L53
 699 0034 1B68     		ldr	r3, [r3]
 700 0036 9C63     		str	r4, [r3, #56]
 130:Core/Src/main.c ****     }
 701              		.loc 1 130 7 discriminator 3 view .LVU190
 702 0038 0520     		movs	r0, #5
 703 003a FFF7FEFF 		bl	HAL_Delay
 704              	.LVL33:
 128:Core/Src/main.c ****       __HAL_TIM_SET_COMPARE(&htim2, TIM_CHANNEL_2, i);
 705              		.loc 1 128 28 discriminator 3 view .LVU191
 128:Core/Src/main.c ****       __HAL_TIM_SET_COMPARE(&htim2, TIM_CHANNEL_2, i);
 706              		.loc 1 128 29 is_stmt 0 discriminator 3 view .LVU192
 707 003e 0134     		adds	r4, r4, #1
 708              	.LVL34:
 709              	.L47:
 128:Core/Src/main.c ****       __HAL_TIM_SET_COMPARE(&htim2, TIM_CHANNEL_2, i);
 710              		.loc 1 128 21 is_stmt 1 discriminator 1 view .LVU193
 128:Core/Src/main.c ****       __HAL_TIM_SET_COMPARE(&htim2, TIM_CHANNEL_2, i);
 711              		.loc 1 128 5 is_stmt 0 discriminator 1 view .LVU194
 712 0040 FE2C     		cmp	r4, #254
 713 0042 F6DD     		ble	.L48
ARM GAS  /tmp/ccbYant3.s 			page 24


 714              	.LBE9:
 132:Core/Src/main.c **** 
 715              		.loc 1 132 5 is_stmt 1 view .LVU195
 716 0044 4FF4FA60 		mov	r0, #2000
 717 0048 FFF7FEFF 		bl	HAL_Delay
 718              	.LVL35:
 134:Core/Src/main.c ****       __HAL_TIM_SET_COMPARE(&htim2, TIM_CHANNEL_2, i);
 719              		.loc 1 134 5 view .LVU196
 720              	.LBB10:
 134:Core/Src/main.c ****       __HAL_TIM_SET_COMPARE(&htim2, TIM_CHANNEL_2, i);
 721              		.loc 1 134 9 view .LVU197
 134:Core/Src/main.c ****       __HAL_TIM_SET_COMPARE(&htim2, TIM_CHANNEL_2, i);
 722              		.loc 1 134 13 is_stmt 0 view .LVU198
 723 004c FF24     		movs	r4, #255
 724              	.LVL36:
 134:Core/Src/main.c ****       __HAL_TIM_SET_COMPARE(&htim2, TIM_CHANNEL_2, i);
 725              		.loc 1 134 5 view .LVU199
 726 004e 06E0     		b	.L49
 727              	.LVL37:
 728              	.L50:
 135:Core/Src/main.c ****       HAL_Delay(5);
 729              		.loc 1 135 7 is_stmt 1 discriminator 3 view .LVU200
 730 0050 074B     		ldr	r3, .L53
 731 0052 1B68     		ldr	r3, [r3]
 732 0054 9C63     		str	r4, [r3, #56]
 136:Core/Src/main.c ****     }
 733              		.loc 1 136 7 discriminator 3 view .LVU201
 734 0056 0520     		movs	r0, #5
 735 0058 FFF7FEFF 		bl	HAL_Delay
 736              	.LVL38:
 134:Core/Src/main.c ****       __HAL_TIM_SET_COMPARE(&htim2, TIM_CHANNEL_2, i);
 737              		.loc 1 134 28 discriminator 3 view .LVU202
 134:Core/Src/main.c ****       __HAL_TIM_SET_COMPARE(&htim2, TIM_CHANNEL_2, i);
 738              		.loc 1 134 29 is_stmt 0 discriminator 3 view .LVU203
 739 005c 013C     		subs	r4, r4, #1
 740              	.LVL39:
 741              	.L49:
 134:Core/Src/main.c ****       __HAL_TIM_SET_COMPARE(&htim2, TIM_CHANNEL_2, i);
 742              		.loc 1 134 23 is_stmt 1 discriminator 1 view .LVU204
 134:Core/Src/main.c ****       __HAL_TIM_SET_COMPARE(&htim2, TIM_CHANNEL_2, i);
 743              		.loc 1 134 5 is_stmt 0 discriminator 1 view .LVU205
 744 005e 002C     		cmp	r4, #0
 745 0060 F6DC     		bgt	.L50
 746              	.LBE10:
 138:Core/Src/main.c **** 
 747              		.loc 1 138 5 is_stmt 1 view .LVU206
 748 0062 4FF4FA60 		mov	r0, #2000
 749 0066 FFF7FEFF 		bl	HAL_Delay
 750              	.LVL40:
 125:Core/Src/main.c ****   {
 751              		.loc 1 125 9 view .LVU207
 752              	.L51:
 125:Core/Src/main.c ****   {
 753              		.loc 1 125 3 view .LVU208
 128:Core/Src/main.c ****       __HAL_TIM_SET_COMPARE(&htim2, TIM_CHANNEL_2, i);
 754              		.loc 1 128 5 view .LVU209
 755              	.LBB11:
ARM GAS  /tmp/ccbYant3.s 			page 25


 128:Core/Src/main.c ****       __HAL_TIM_SET_COMPARE(&htim2, TIM_CHANNEL_2, i);
 756              		.loc 1 128 9 view .LVU210
 128:Core/Src/main.c ****       __HAL_TIM_SET_COMPARE(&htim2, TIM_CHANNEL_2, i);
 757              		.loc 1 128 13 is_stmt 0 view .LVU211
 758 006a 0024     		movs	r4, #0
 128:Core/Src/main.c ****       __HAL_TIM_SET_COMPARE(&htim2, TIM_CHANNEL_2, i);
 759              		.loc 1 128 5 view .LVU212
 760 006c E8E7     		b	.L47
 761              	.L54:
 762 006e 00BF     		.align	2
 763              	.L53:
 764 0070 00000000 		.word	.LANCHOR3
 765 0074 00000000 		.word	.LANCHOR4
 766 0078 00000000 		.word	.LANCHOR1
 767              	.LBE11:
 768              		.cfi_endproc
 769              	.LFE67:
 771              		.global	count
 772              		.global	ADCFinis
 773              		.global	msg
 774              		.global	adc_read
 775              		.global	adc
 776              		.global	huart1
 777              		.global	htim2
 778              		.global	hdma_adc1
 779              		.global	hadc1
 780              		.section	.bss.ADCFinis,"aw",%nobits
 781              		.align	2
 782              		.set	.LANCHOR0,. + 0
 785              	ADCFinis:
 786 0000 00000000 		.space	4
 787              		.section	.bss.adc,"aw",%nobits
 788              		.align	2
 789              		.set	.LANCHOR4,. + 0
 792              	adc:
 793 0000 0000     		.space	2
 794              		.section	.bss.adc_read,"aw",%nobits
 795              		.align	1
 798              	adc_read:
 799 0000 0000     		.space	2
 800              		.section	.bss.count,"aw",%nobits
 801              		.align	2
 804              	count:
 805 0000 00000000 		.space	4
 806              		.section	.bss.hadc1,"aw",%nobits
 807              		.align	2
 808              		.set	.LANCHOR1,. + 0
 811              	hadc1:
 812 0000 00000000 		.space	48
 812      00000000 
 812      00000000 
 812      00000000 
 812      00000000 
 813              		.section	.bss.hdma_adc1,"aw",%nobits
 814              		.align	2
 817              	hdma_adc1:
 818 0000 00000000 		.space	68
ARM GAS  /tmp/ccbYant3.s 			page 26


 818      00000000 
 818      00000000 
 818      00000000 
 818      00000000 
 819              		.section	.bss.htim2,"aw",%nobits
 820              		.align	2
 821              		.set	.LANCHOR3,. + 0
 824              	htim2:
 825 0000 00000000 		.space	72
 825      00000000 
 825      00000000 
 825      00000000 
 825      00000000 
 826              		.section	.bss.huart1,"aw",%nobits
 827              		.align	2
 828              		.set	.LANCHOR2,. + 0
 831              	huart1:
 832 0000 00000000 		.space	72
 832      00000000 
 832      00000000 
 832      00000000 
 832      00000000 
 833              		.section	.bss.msg,"aw",%nobits
 834              		.align	2
 837              	msg:
 838 0000 00000000 		.space	25
 838      00000000 
 838      00000000 
 838      00000000 
 838      00000000 
 839              		.text
 840              	.Letext0:
 841              		.file 3 "/usr/lib/gcc/arm-none-eabi/10.3.1/include/stdint.h"
 842              		.file 4 "Drivers/CMSIS/Device/ST/STM32F1xx/Include/stm32f103xb.h"
 843              		.file 5 "Drivers/CMSIS/Device/ST/STM32F1xx/Include/stm32f1xx.h"
 844              		.file 6 "Drivers/STM32F1xx_HAL_Driver/Inc/stm32f1xx_hal_def.h"
 845              		.file 7 "Drivers/STM32F1xx_HAL_Driver/Inc/stm32f1xx_hal_rcc.h"
 846              		.file 8 "Drivers/STM32F1xx_HAL_Driver/Inc/stm32f1xx_hal_rcc_ex.h"
 847              		.file 9 "Drivers/STM32F1xx_HAL_Driver/Inc/stm32f1xx_hal_dma.h"
 848              		.file 10 "Drivers/STM32F1xx_HAL_Driver/Inc/stm32f1xx_hal_adc.h"
 849              		.file 11 "Drivers/STM32F1xx_HAL_Driver/Inc/stm32f1xx_hal_tim.h"
 850              		.file 12 "Drivers/STM32F1xx_HAL_Driver/Inc/stm32f1xx_hal_uart.h"
 851              		.file 13 "Drivers/STM32F1xx_HAL_Driver/Inc/stm32f1xx_hal_cortex.h"
 852              		.file 14 "Drivers/STM32F1xx_HAL_Driver/Inc/stm32f1xx_hal_tim_ex.h"
 853              		.file 15 "Core/Inc/main.h"
 854              		.file 16 "Drivers/STM32F1xx_HAL_Driver/Inc/stm32f1xx_hal.h"
 855              		.file 17 "<built-in>"
ARM GAS  /tmp/ccbYant3.s 			page 27

